target datalayout = "e-m:e-p270:32:32-p271:32:32-p272:64:64-i64:64-i128:128-f80:128-n8:16:32:64-S128"
target triple = "x86_64-pc-linux-gnu"

; Function Attrs: mustprogress nounwind uwtable
define void @_Z14DosSlashToUnixPKcPcm(ptr noundef %0, ptr noundef %1, i64 noundef %2) #2 {
  %4 = alloca ptr, align 8
  %5 = alloca ptr, align 8
  %6 = alloca i64, align 8
  %7 = alloca i64, align 8
  store ptr %0, ptr %4, align 8
  store ptr %1, ptr %5, align 8
  store i64 %2, ptr %6, align 8
  store i64 0, ptr %7, align 8
  br label %8

8:                                                ; preds = %40, %3
  %9 = load i64, ptr %7, align 8
  %10 = load i64, ptr %6, align 8
  %11 = sub i64 %10, 1
  %12 = icmp ult i64 %9, %11
  br i1 %12, label %13, label %20

13:                                               ; preds = %8
  %14 = load ptr, ptr %4, align 8
  %15 = load i64, ptr %7, align 8
  %16 = getelementptr inbounds i8, ptr %14, i64 %15
  %17 = load i8, ptr %16, align 1
  %18 = sext i8 %17 to i32
  %19 = icmp ne i32 %18, 0
  br label %20

20:                                               ; preds = %13, %8
  %21 = phi i1 [ false, %8 ], [ %19, %13 ]
  br i1 %21, label %22, label %43

22:                                               ; preds = %20
  %23 = load ptr, ptr %4, align 8
  %24 = load i64, ptr %7, align 8
  %25 = getelementptr inbounds i8, ptr %23, i64 %24
  %26 = load i8, ptr %25, align 1
  %27 = sext i8 %26 to i32
  %28 = icmp eq i32 %27, 92
  br i1 %28, label %29, label %30

29:                                               ; preds = %22
  br label %35

30:                                               ; preds = %22
  %31 = load ptr, ptr %4, align 8
  %32 = load i64, ptr %7, align 8
  %33 = getelementptr inbounds i8, ptr %31, i64 %32
  %34 = load i8, ptr %33, align 1
  br label %35

35:                                               ; preds = %30, %29
  %36 = phi i8 [ 47, %29 ], [ %34, %30 ]
  %37 = load ptr, ptr %5, align 8
  %38 = load i64, ptr %7, align 8
  %39 = getelementptr inbounds i8, ptr %37, i64 %38
  store i8 %36, ptr %39, align 1
  br label %40

40:                                               ; preds = %35
  %41 = load i64, ptr %7, align 8
  %42 = add i64 %41, 1
  store i64 %42, ptr %7, align 8
  br label %8, !llvm.loop !20

43:                                               ; preds = %20
  %44 = load ptr, ptr %5, align 8
  %45 = load i64, ptr %7, align 8
  %46 = getelementptr inbounds i8, ptr %44, i64 %45
  store i8 0, ptr %46, align 1
  ret void
}